; ModuleID = '10/2166.c'
source_filename = "10/2166.c"
target datalayout = "e-m:e-p270:32:32-p271:32:32-p272:64:64-i64:64-f80:128-n8:16:32:64-S128"
target triple = "x86_64-pc-linux-gnu"

@.str = private unnamed_addr constant [3 x i8] c"%d\00", align 1
@.str.1 = private unnamed_addr constant [4 x i8] c"%d\0A\00", align 1

; Function Attrs: noinline nounwind uwtable
define dso_local i32 @main() #0 {
  %1 = alloca i32, align 4
  %2 = alloca i32, align 4
  %3 = alloca i32*, align 8
  %4 = alloca i32*, align 8
  %5 = alloca i32, align 4
  %6 = alloca i32, align 4
  %7 = alloca i32, align 4
  store i32 0, i32* %1, align 4
  %8 = call i32 (i8*, ...) @__isoc99_scanf(i8* getelementptr inbounds ([3 x i8], [3 x i8]* @.str, i64 0, i64 0), i32* %2)
  %9 = load i32, i32* %2, align 4
  %10 = add nsw i32 %9, 1
  %11 = sext i32 %10 to i64
  %12 = mul i64 4, %11
  %13 = call noalias i8* @malloc(i64 %12) #3
  %14 = bitcast i8* %13 to i32*
  store i32* %14, i32** %3, align 8
  store i32 1, i32* %6, align 4
  br label %15

15:                                               ; preds = %26, %0
  %16 = load i32, i32* %6, align 4
  %17 = load i32, i32* %2, align 4
  %18 = add nsw i32 %17, 1
  %19 = icmp slt i32 %16, %18
  br i1 %19, label %20, label %29

20:                                               ; preds = %15
  %21 = load i32*, i32** %3, align 8
  %22 = load i32, i32* %6, align 4
  %23 = sext i32 %22 to i64
  %24 = getelementptr inbounds i32, i32* %21, i64 %23
  %25 = call i32 (i8*, ...) @__isoc99_scanf(i8* getelementptr inbounds ([3 x i8], [3 x i8]* @.str, i64 0, i64 0), i32* %24)
  br label %26

26:                                               ; preds = %20
  %27 = load i32, i32* %6, align 4
  %28 = add nsw i32 %27, 1
  store i32 %28, i32* %6, align 4
  br label %15

29:                                               ; preds = %15
  %30 = load i32, i32* %2, align 4
  %31 = add nsw i32 %30, 1
  %32 = sext i32 %31 to i64
  %33 = mul i64 4, %32
  %34 = call noalias i8* @malloc(i64 %33) #3
  %35 = bitcast i8* %34 to i32*
  store i32* %35, i32** %4, align 8
  store i32 1, i32* %6, align 4
  br label %36

36:                                               ; preds = %45, %29
  %37 = load i32, i32* %6, align 4
  %38 = load i32, i32* %2, align 4
  %39 = icmp sle i32 %37, %38
  br i1 %39, label %40, label %48

40:                                               ; preds = %36
  %41 = load i32*, i32** %4, align 8
  %42 = load i32, i32* %6, align 4
  %43 = sext i32 %42 to i64
  %44 = getelementptr inbounds i32, i32* %41, i64 %43
  store i32 1, i32* %44, align 4
  br label %45

45:                                               ; preds = %40
  %46 = load i32, i32* %6, align 4
  %47 = add nsw i32 %46, 1
  store i32 %47, i32* %6, align 4
  br label %36

48:                                               ; preds = %36
  %49 = load i32, i32* %2, align 4
  %50 = sub nsw i32 %49, 1
  store i32 %50, i32* %6, align 4
  br label %51

51:                                               ; preds = %103, %48
  %52 = load i32, i32* %6, align 4
  %53 = icmp sgt i32 %52, 0
  br i1 %53, label %54, label %106

54:                                               ; preds = %51
  %55 = load i32, i32* %6, align 4
  %56 = add nsw i32 %55, 1
  store i32 %56, i32* %5, align 4
  br label %57

57:                                               ; preds = %99, %54
  %58 = load i32, i32* %5, align 4
  %59 = load i32, i32* %2, align 4
  %60 = icmp sle i32 %58, %59
  br i1 %60, label %61, label %102

61:                                               ; preds = %57
  %62 = load i32*, i32** %3, align 8
  %63 = load i32, i32* %5, align 4
  %64 = sext i32 %63 to i64
  %65 = getelementptr inbounds i32, i32* %62, i64 %64
  %66 = load i32, i32* %65, align 4
  %67 = load i32*, i32** %3, align 8
  %68 = load i32, i32* %6, align 4
  %69 = sext i32 %68 to i64
  %70 = getelementptr inbounds i32, i32* %67, i64 %69
  %71 = load i32, i32* %70, align 4
  %72 = icmp sle i32 %66, %71
  br i1 %72, label %73, label %98

73:                                               ; preds = %61
  %74 = load i32*, i32** %4, align 8
  %75 = load i32, i32* %6, align 4
  %76 = sext i32 %75 to i64
  %77 = getelementptr inbounds i32, i32* %74, i64 %76
  %78 = load i32, i32* %77, align 4
  %79 = load i32*, i32** %4, align 8
  %80 = load i32, i32* %5, align 4
  %81 = sext i32 %80 to i64
  %82 = getelementptr inbounds i32, i32* %79, i64 %81
  %83 = load i32, i32* %82, align 4
  %84 = add nsw i32 %83, 1
  %85 = icmp slt i32 %78, %84
  br i1 %85, label %86, label %97

86:                                               ; preds = %73
  %87 = load i32*, i32** %4, align 8
  %88 = load i32, i32* %5, align 4
  %89 = sext i32 %88 to i64
  %90 = getelementptr inbounds i32, i32* %87, i64 %89
  %91 = load i32, i32* %90, align 4
  %92 = add nsw i32 %91, 1
  %93 = load i32*, i32** %4, align 8
  %94 = load i32, i32* %6, align 4
  %95 = sext i32 %94 to i64
  %96 = getelementptr inbounds i32, i32* %93, i64 %95
  store i32 %92, i32* %96, align 4
  br label %97

97:                                               ; preds = %86, %73
  br label %98

98:                                               ; preds = %97, %61
  br label %99

99:                                               ; preds = %98
  %100 = load i32, i32* %5, align 4
  %101 = add nsw i32 %100, 1
  store i32 %101, i32* %5, align 4
  br label %57

102:                                              ; preds = %57
  br label %103

103:                                              ; preds = %102
  %104 = load i32, i32* %6, align 4
  %105 = add nsw i32 %104, -1
  store i32 %105, i32* %6, align 4
  br label %51

106:                                              ; preds = %51
  %107 = load i32*, i32** %4, align 8
  %108 = getelementptr inbounds i32, i32* %107, i64 1
  %109 = load i32, i32* %108, align 4
  store i32 %109, i32* %7, align 4
  store i32 1, i32* %6, align 4
  br label %110

110:                                              ; preds = %129, %106
  %111 = load i32, i32* %6, align 4
  %112 = load i32, i32* %2, align 4
  %113 = icmp sle i32 %111, %112
  br i1 %113, label %114, label %132

114:                                              ; preds = %110
  %115 = load i32, i32* %7, align 4
  %116 = load i32*, i32** %4, align 8
  %117 = load i32, i32* %6, align 4
  %118 = sext i32 %117 to i64
  %119 = getelementptr inbounds i32, i32* %116, i64 %118
  %120 = load i32, i32* %119, align 4
  %121 = icmp slt i32 %115, %120
  br i1 %121, label %122, label %128

122:                                              ; preds = %114
  %123 = load i32*, i32** %4, align 8
  %124 = load i32, i32* %6, align 4
  %125 = sext i32 %124 to i64
  %126 = getelementptr inbounds i32, i32* %123, i64 %125
  %127 = load i32, i32* %126, align 4
  store i32 %127, i32* %7, align 4
  br label %128

128:                                              ; preds = %122, %114
  br label %129

129:                                              ; preds = %128
  %130 = load i32, i32* %6, align 4
  %131 = add nsw i32 %130, 1
  store i32 %131, i32* %6, align 4
  br label %110

132:                                              ; preds = %110
  %133 = load i32, i32* %7, align 4
  %134 = call i32 (i8*, ...) @printf(i8* getelementptr inbounds ([4 x i8], [4 x i8]* @.str.1, i64 0, i64 0), i32 %133)
  %135 = load i32*, i32** %3, align 8
  %136 = bitcast i32* %135 to i8*
  call void @free(i8* %136) #3
  %137 = load i32*, i32** %4, align 8
  %138 = bitcast i32* %137 to i8*
  call void @free(i8* %138) #3
  ret i32 0
}

declare dso_local i32 @__isoc99_scanf(i8*, ...) #1

; Function Attrs: nounwind
declare dso_local noalias i8* @malloc(i64) #2

declare dso_local i32 @printf(i8*, ...) #1

; Function Attrs: nounwind
declare dso_local void @free(i8*) #2


!llvm.module.flags = !{!0}
!llvm.ident = !{!1}

!0 = !{i32 1, !"wchar_size", i32 4}
!1 = !{!"clang version 10.0.0-4ubuntu1 "}
